Certificate Request:
    Data:
        Version: 1 (0x0)
        Subject: C=NL, O=PolarSSL, CN=localhost
        Subject Public Key Info:
            Public Key Algorithm: rsaEncryption
                Public-Key: (2048 bit)
                Modulus:
                    00:c1:4d:a3:dd:e7:cd:1d:d1:04:d7:49:72:b8:99:
                    ac:0e:78:e4:3a:3c:4a:cf:3a:13:16:d0:5a:e4:cd:
                    a3:00:88:a7:ee:1e:6b:96:a7:52:b4:90:ef:2d:72:
                    7a:3e:24:9a:fc:b6:34:ac:24:f5:77:e0:26:64:8c:
                    9c:b0:28:7d:a1:da:ea:8c:e6:c9:1c:96:bc:fe:c1:
                    04:52:b3:36:d4:a3:fa:e1:b1:76:d8:90:c1:61:b4:
                    66:52:36:a2:26:53:aa:ab:74:5e:07:7d:19:82:db:
                    2a:d8:1f:a0:d9:0d:1c:2d:49:66:f7:5b:25:73:46:
                    e8:0b:8a:4f:69:0c:b5:00:90:e1:da:82:10:66:7d:
                    ae:54:2b:8b:65:79:91:a1:e2:61:c3:cd:40:49:08:
                    ee:68:0c:f1:8b:86:d2:46:bf:d0:b8:aa:11:03:1e:
                    7f:56:a8:1a:1e:44:18:0f:0f:85:8b:da:8b:44:5e:
                    e2:18:c6:62:2f:c7:66:8d:fa:5d:d8:7d:f3:27:89:
                    29:01:c5:90:0e:3f:27:f1:30:c8:4a:0e:ef:d6:de:
                    c7:c7:27:6b:c7:05:3d:7a:c4:02:3c:9a:1d:3e:0f:
                    e8:34:98:5b:cb:73:4b:52:96:d8:11:a2:2c:80:88:
                    69:39:5a:d3:0f:b0:de:59:2f:11:c7:f7:ea:12:01:
                    30:97
                Exponent: 65537 (0x10001)
        Attributes:
            a0:00
    Signature Algorithm: sha256WithRSAEncryption
         4c:48:ef:ba:d9:ae:a1:11:3d:6a:5e:62:ae:76:83:aa:f1:91:
         0d:25:2a:30:c2:3d:92:0c:2e:bb:70:b9:49:97:1a:e7:36:4f:
         04:15:c8:e4:35:33:be:53:e7:48:a7:72:21:79:8d:38:2c:5a:
         02:b6:1d:15:2f:2e:ea:5e:cf:ee:1a:4f:12:e1:b5:97:24:03:
         e1:74:61:46:17:51:3c:6b:a8:60:9c:1a:7a:50:a8:08:4d:ae:
         21:4f:60:48:ad:d4:f1:98:c0:94:22:68:dc:5e:c5:c4:c5:92:
         21:2b:29:6e:e0:7f:18:0e:ab:52:b1:7a:c7:92:19:fe:c3:d5:
         38:8c:fa:ec:a3:c2:e7:7a:ea:e2:36:53:88:d0:e7:fd:fd:6e:
         4b:79:27:2b:13:a0:49:d9:9b:6b:dc:74:d0:ec:75:fa:ac:ea:
         8a:d1:b1:fb:ec:0b:63:9d:24:56:10:ad:54:c9:e8:cd:9e:89:
         b5:f6:46:5a:b6:f2:8b:f1:9d:4a:38:5e:26:bb:fb:53:24:12:
         b1:b1:f7:00:74:6b:45:f1:55:bc:01:dd:a5:72:fe:90:d5:9c:
         18:eb:c9:16:74:6e:2f:21:b2:59:f2:b4:e7:15:7a:4d:15:e8:
         a0:7a:ba:5a:0d:09:c0:06:b6:df:08:41:da:2c:c0:2d:87:7a:
         4d:7a:d2:08
-----BEGIN CERTIFICATE REQUEST-----
MIICeTCCAWECAQAwNDELMAkGA1UEBhMCTkwxETAPBgNVBAoTCFBvbGFyU1NMMRIw
EAYDVQQDEwlsb2NhbGhvc3QwggEiMA0GCSqGSIb3DQEBAQUAA4IBDwAwggEKAoIB
AQDBTaPd580d0QTXSXK4mawOeOQ6PErPOhMW0FrkzaMAiKfuHmuWp1K0kO8tcno+
JJr8tjSsJPV34CZkjJywKH2h2uqM5skclrz+wQRSszbUo/rhsXbYkMFhtGZSNqIm
U6qrdF4HfRmC2yrYH6DZDRwtSWb3WyVzRugLik9pDLUAkOHaghBmfa5UK4tleZGh
4mHDzUBJCO5oDPGLhtJGv9C4qhEDHn9WqBoeRBgPD4WL2otEXuIYxmIvx2aN+l3Y
ffMniSkBxZAOPyfxMMhKDu/W3sfHJ2vHBT16xAI8mh0+D+g0mFvLc0tSltgRoiyA
iGk5WtMPsN5ZLxHH9+oSATCXAgMBAAGgADANBgkqhkiG9w0BAQsFAAOCAQEATEjv
utmuoRE9al5irnaDqvGRDSUqMMI9kgwuu3C5SZca5zZPBBXI5DUzvlPnSKdyIXmN
OCxaArYdFS8u6l7P7hpPEuG1lyQD4XRhRhdRPGuoYJwaelCoCE2uIU9gSK3U8ZjA
lCJo3F7FxMWSISspbuB/GA6rUrF6x5IZ/sPVOIz67KPC53rq4jZTiNDn/f1uS3kn
KxOgSdmba9x00Ox1+qzqitGx++wLY50kVhCtVMnozZ6JtfZGWrbyi/GdSjheJrv7
UyQSsbH3AHRrRfFVvAHdpXL+kNWcGOvJFnRuLyGyWfK05xV6TRXooHq6Wg0JwAa2
3whB2izALYd6TXrSCA==
-----END CERTIFICATE REQUEST-----
